(dp1
S'output'
p2
S"<type 'exceptions.ValueError'> invalid literal for long() with base 10: 'dsadsd'"
p3
sS'layer'
p4
S'C:\\Users\\Hadar\\PycharmProjects\\web2py\\applications\\Shots_Manager\\controllers/shots.py'
p5
sS'code'
p6
S'<code object <module> at 046A9968, file "C:\\Users\\Hadar\\PycharmProjects\\web2py\\applications\\Shots_Manager\\controllers/shots.py", line 4>'
p7
sS'snapshot'
p8
(dp9
S'exception'
p10
(dp11
S'__getslice__'
p12
S"<method-wrapper '__getslice__' of exceptions.ValueError object>"
p13
sS'__str__'
p14
S"<method-wrapper '__str__' of exceptions.ValueError object>"
p15
sS'__reduce__'
p16
S'<built-in method __reduce__ of exceptions.ValueError object>'
p17
sS'__dict__'
p18
S'{}'
p19
sS'message'
p20
S'"invalid literal for long() with base 10: \'dsadsd\'"'
p21
sS'__sizeof__'
p22
S'<built-in method __sizeof__ of exceptions.ValueError object>'
p23
sS'__init__'
p24
S"<method-wrapper '__init__' of exceptions.ValueError object>"
p25
sS'__setattr__'
p26
S"<method-wrapper '__setattr__' of exceptions.ValueError object>"
p27
sS'__reduce_ex__'
p28
S'<built-in method __reduce_ex__ of exceptions.ValueError object>'
p29
sS'__new__'
p30
S'<built-in method __new__ of type object>'
p31
sS'__format__'
p32
S'<built-in method __format__ of exceptions.ValueError object>'
p33
sS'__class__'
p34
S"<type 'exceptions.ValueError'>"
p35
sS'__doc__'
p36
S"'Inappropriate argument value (of correct type).'"
p37
sS'__getitem__'
p38
S"<method-wrapper '__getitem__' of exceptions.ValueError object>"
p39
sS'__setstate__'
p40
S'<built-in method __setstate__ of exceptions.ValueError object>'
p41
sS'__getattribute__'
p42
S"<method-wrapper '__getattribute__' of exceptions.ValueError object>"
p43
sS'args'
p44
S'("invalid literal for long() with base 10: \'dsadsd\'",)'
p45
sS'__subclasshook__'
p46
S'<built-in method __subclasshook__ of type object>'
p47
sS'__unicode__'
p48
S'<built-in method __unicode__ of exceptions.ValueError object>'
p49
sS'__delattr__'
p50
S"<method-wrapper '__delattr__' of exceptions.ValueError object>"
p51
sS'__repr__'
p52
S"<method-wrapper '__repr__' of exceptions.ValueError object>"
p53
sS'__hash__'
p54
S"<method-wrapper '__hash__' of exceptions.ValueError object>"
p55
ssS'evalue'
p56
S"invalid literal for long() with base 10: 'dsadsd'"
p57
sS'request'
p58
cgluon.html
XML_unpickle
p59
(S'sHk\x00\x00<div><table><tr><td style="font-weight:bold;vertical-align:top;">ajax</td><td style="vertical-align:top;">:</td><td><div>False</div></td></tr><tr><td style="font-weight:bold;vertical-align:top;">application</td><td style="vertical-align:top;">:</td><td><div>Shots_Manager</div></td></tr><tr><td style="font-weight:bold;vertical-align:top;">args</td><td style="vertical-align:top;">:</td><td><div><table></table></div></td></tr><tr><td style="font-weight:bold;vertical-align:top;">cid</td><td style="vertical-align:top;">:</td><td><div>None</div></td></tr><tr><td style="font-weight:bold;vertical-align:top;">client</td><td style="vertical-align:top;">:</td><td><div>127.0.0.1</div></td></tr><tr><td style="font-weight:bold;vertical-align:top;">controller</td><td style="vertical-align:top;">:</td><td><div>shots</div></td></tr><tr><td style="font-weight:bold;vertical-align:top;">cookies</td><td style="vertical-align:top;">:</td><td><div><table><tr><td style="font-weight:bold;vertical-align:top;">session_id_admin</td><td style="vertical-align:top;">:</td><td><div>127.0.0.1-ad842396-2eb3-4405-80e3-671a3964b448<table><tr><td style="font-weight:bold;vertical-align:top;">comment</td><td style="vertical-align:top;">:</td><td><div></div></td></tr><tr><td style="font-weight:bold;vertical-align:top;">domain</td><td style="vertical-align:top;">:</td><td><div></div></td></tr><tr><td style="font-weight:bold;vertical-align:top;">expires</td><td style="vertical-align:top;">:</td><td><div></div></td></tr><tr><td style="font-weight:bold;vertical-align:top;">httponly</td><td style="vertical-align:top;">:</td><td><div></div></td></tr><tr><td style="font-weight:bold;vertical-align:top;">max-age</td><td style="vertical-align:top;">:</td><td><div></div></td></tr><tr><td style="font-weight:bold;vertical-align:top;">path</td><td style="vertical-align:top;">:</td><td><div></div></td></tr><tr><td style="font-weight:bold;vertical-align:top;">samesite</td><td style="vertical-align:top;">:</td><td><div></div></td></tr><tr><td style="font-weight:bold;vertical-align:top;">secure</td><td style="vertical-align:top;">:</td><td><div></div></td></tr><tr><td style="font-weight:bold;vertical-align:top;">version</td><td style="vertical-align:top;">:</td><td><div></div></td></tr></table></div></td></tr><tr><td style="font-weight:bold;vertical-align:top;">session_id_shots_manager</td><td style="vertical-align:top;">:</td><td><div>127.0.0.1-cd39e37d-890a-457e-a7da-335d1c2423ba<table><tr><td style="font-weight:bold;vertical-align:top;">comment</td><td style="vertical-align:top;">:</td><td><div></div></td></tr><tr><td style="font-weight:bold;vertical-align:top;">domain</td><td style="vertical-align:top;">:</td><td><div></div></td></tr><tr><td style="font-weight:bold;vertical-align:top;">expires</td><td style="vertical-align:top;">:</td><td><div></div></td></tr><tr><td style="font-weight:bold;vertical-align:top;">httponly</td><td style="vertical-align:top;">:</td><td><div></div></td></tr><tr><td style="font-weight:bold;vertical-align:top;">max-age</td><td style="vertical-align:top;">:</td><td><div></div></td></tr><tr><td style="font-weight:bold;vertical-align:top;">path</td><td style="vertical-align:top;">:</td><td><div></div></td></tr><tr><td style="font-weight:bold;vertical-align:top;">samesite</td><td style="vertical-align:top;">:</td><td><div></div></td></tr><tr><td style="font-weight:bold;vertical-align:top;">secure</td><td style="vertical-align:top;">:</td><td><div></div></td></tr><tr><td style="font-weight:bold;vertical-align:top;">version</td><td style="vertical-align:top;">:</td><td><div></div></td></tr></table></div></td></tr><tr><td style="font-weight:bold;vertical-align:top;">session_id_welcome</td><td style="vertical-align:top;">:</td><td><div>127.0.0.1-924b7aa2-32b9-4a1d-a0dd-6fe94fafa9ff<table><tr><td style="font-weight:bold;vertical-align:top;">comment</td><td style="vertical-align:top;">:</td><td><div></div></td></tr><tr><td style="font-weight:bold;vertical-align:top;">domain</td><td style="vertical-align:top;">:</td><td><div></div></td></tr><tr><td style="font-weight:bold;vertical-align:top;">expires</td><td style="vertical-align:top;">:</td><td><div></div></td></tr><tr><td style="font-weight:bold;vertical-align:top;">httponly</td><td style="vertical-align:top;">:</td><td><div></div></td></tr><tr><td style="font-weight:bold;vertical-align:top;">max-age</td><td style="vertical-align:top;">:</td><td><div></div></td></tr><tr><td style="font-weight:bold;vertical-align:top;">path</td><td style="vertical-align:top;">:</td><td><div></div></td></tr><tr><td style="font-weight:bold;vertical-align:top;">samesite</td><td style="vertical-align:top;">:</td><td><div></div></td></tr><tr><td style="font-weight:bold;vertical-align:top;">secure</td><td style="vertical-align:top;">:</td><td><div></div></td></tr><tr><td style="font-weight:bold;vertical-align:top;">version</td><td style="vertical-align:top;">:</td><td><div></div></td></tr></table></div></td></tr></table></div></td></tr><tr><td style="font-weight:bold;vertical-align:top;">env</td><td style="vertical-align:top;">:</td><td><div><table><tr><td style="font-weight:bold;vertical-align:top;">CONTENT_LENGTH</td><td style="vertical-align:top;">:</td><td><div>86</div></td></tr><tr><td style="font-weight:bold;vertical-align:top;">CONTENT_TYPE</td><td style="vertical-align:top;">:</td><td><div>application/x-www-form-urlencoded</div></td></tr><tr><td style="font-weight:bold;vertical-align:top;">HTTP_ACCEPT</td><td style="vertical-align:top;">:</td><td><div>text/html,application/xhtml+xml,application/xml;q=0.9,image/webp,image/apng,*/*;q=0.8,application/signed-exchange;v=b3</div></td></tr><tr><td style="font-weight:bold;vertical-align:top;">HTTP_ACCEPT_ENCODING</td><td style="vertical-align:top;">:</td><td><div>gzip, deflate, br</div></td></tr><tr><td style="font-weight:bold;vertical-align:top;">HTTP_ACCEPT_LANGUAGE</td><td style="vertical-align:top;">:</td><td><div>en-US,en;q=0.9,he;q=0.8</div></td></tr><tr><td style="font-weight:bold;vertical-align:top;">HTTP_CACHE_CONTROL</td><td style="vertical-align:top;">:</td><td><div>max-age=0</div></td></tr><tr><td style="font-weight:bold;vertical-align:top;">HTTP_CONNECTION</td><td style="vertical-align:top;">:</td><td><div>keep-alive</div></td></tr><tr><td style="font-weight:bold;vertical-align:top;">HTTP_CONTENT_LENGTH</td><td style="vertical-align:top;">:</td><td><div>86</div></td></tr><tr><td style="font-weight:bold;vertical-align:top;">HTTP_CONTENT_TYPE</td><td style="vertical-align:top;">:</td><td><div>application/x-www-form-urlencoded</div></td></tr><tr><td style="font-weight:bold;vertical-align:top;">HTTP_COOKIE</td><td style="vertical-align:top;">:</td><td><div>session_id_admin=127.0.0.1-ad842396-2eb3-4405-80e3-671a3964b448; session_id_shots_manager=127.0.0.1-cd39e37d-890a-457e-a7da-335d1c2423ba; session_id_welcome=127.0.0.1-924b7aa2-32b9-4a1d-a0dd-6fe94fafa9ff</div></td></tr><tr><td style="font-weight:bold;vertical-align:top;">HTTP_HOST</td><td style="vertical-align:top;">:</td><td><div>127.0.0.1:8000</div></td></tr><tr><td style="font-weight:bold;vertical-align:top;">HTTP_ORIGIN</td><td style="vertical-align:top;">:</td><td><div>http://127.0.0.1:8000</div></td></tr><tr><td style="font-weight:bold;vertical-align:top;">HTTP_REFERER</td><td style="vertical-align:top;">:</td><td><div>http://127.0.0.1:8000/Shots_Manager/shots/status</div></td></tr><tr><td style="font-weight:bold;vertical-align:top;">HTTP_SEC_FETCH_MODE</td><td style="vertical-align:top;">:</td><td><div>navigate</div></td></tr><tr><td style="font-weight:bold;vertical-align:top;">HTTP_SEC_FETCH_SITE</td><td style="vertical-align:top;">:</td><td><div>same-origin</div></td></tr><tr><td style="font-weight:bold;vertical-align:top;">HTTP_SEC_FETCH_USER</td><td style="vertical-align:top;">:</td><td><div>?1</div></td></tr><tr><td style="font-weight:bold;vertical-align:top;">HTTP_UPGRADE_INSECURE_REQUESTS</td><td style="vertical-align:top;">:</td><td><div>1</div></td></tr><tr><td style="font-weight:bold;vertical-align:top;">HTTP_USER_AGENT</td><td style="vertical-align:top;">:</td><td><div>Mozilla/5.0 (Windows NT 10.0; Win64; x64) AppleWebKit/537.36 (KHTML, like Gecko) Chrome/76.0.3809.100 Safari/537.36</div></td></tr><tr><td style="font-weight:bold;vertical-align:top;">PATH_INFO</td><td style="vertical-align:top;">:</td><td><div>/Shots_Manager/shots/status</div></td></tr><tr><td style="font-weight:bold;vertical-align:top;">QUERY_STRING</td><td style="vertical-align:top;">:</td><td><div></div></td></tr><tr><td style="font-weight:bold;vertical-align:top;">REMOTE_ADDR</td><td style="vertical-align:top;">:</td><td><div>127.0.0.1</div></td></tr><tr><td style="font-weight:bold;vertical-align:top;">REMOTE_PORT</td><td style="vertical-align:top;">:</td><td><div>50034</div></td></tr><tr><td style="font-weight:bold;vertical-align:top;">REQUEST_METHOD</td><td style="vertical-align:top;">:</td><td><div>POST</div></td></tr><tr><td style="font-weight:bold;vertical-align:top;">SCRIPT_NAME</td><td style="vertical-align:top;">:</td><td><div></div></td></tr><tr><td style="font-weight:bold;vertical-align:top;">SERVER_NAME</td><td style="vertical-align:top;">:</td><td><div>DESKTOP-3MK97MI</div></td></tr><tr><td style="font-weight:bold;vertical-align:top;">SERVER_PORT</td><td style="vertical-align:top;">:</td><td><div>8000</div></td></tr><tr><td style="font-weight:bold;vertical-align:top;">SERVER_PROTOCOL</td><td style="vertical-align:top;">:</td><td><div>HTTP/1.1</div></td></tr><tr><td style="font-weight:bold;vertical-align:top;">SERVER_SOFTWARE</td><td style="vertical-align:top;">:</td><td><div>Rocket 1.2.6</div></td></tr><tr><td style="font-weight:bold;vertical-align:top;">app_folders</td><td style="vertical-align:top;">:</td><td><div>set([&#x27;C:\\\\Users\\\\Hadar\\\\PycharmProjects\\\\web2py\\\\applications\\\\Shots_Manager&#x27;, &#x27;C:\\\\Users\\\\Hadar\\\\PycharmProjects\\\\web2py\\\\applications\\\\admin&#x27;, &#x27;C:\\\\Users\\\\Hadar\\\\PycharmProjects\\\\web2py\\\\applications\\\\welcome&#x27;])</div></td></tr><tr><td style="font-weight:bold;vertical-align:top;">applications_parent</td><td style="vertical-align:top;">:</td><td><div>C:\\Users\\Hadar\\PycharmProjects\\web2py</div></td></tr><tr><td style="font-weight:bold;vertical-align:top;">cmd_args</td><td style="vertical-align:top;">:</td><td><div><table></table></div></td></tr><tr><td style="font-weight:bold;vertical-align:top;">cmd_options</td><td style="vertical-align:top;">:</td><td><div>&lt;Values at 0x3239508: {&#x27;verbose&#x27;: False, &#x27;ip&#x27;: &#x27;127.0.0.1&#x27;, &#x27;debuglevel&#x27;: 30, &#x27;with_scheduler&#x27;: False, &#x27;shutdown_timeout&#x27;: 5, &#x27;taskbar&#x27;: False, &#x27;with_coverage&#x27;: False, &#x27;pid_filename&#x27;: &#x27;httpserver.pid&#x27;, &#x27;maxthreads&#x27;: None, &#x27;softcron&#x27;: False, &#x27;server_name&#x27;: &#x27;DESKTOP-3MK97MI&#x27;, &#x27;bpython&#x27;: False, &#x27;nogui&#x27;: False, &#x27;port&#x27;: 8000, &#x27;print_errors&#x27;: False, &#x27;extcron&#x27;: False, &#x27;runcron&#x27;: False, &#x27;run_system_tests&#x27;: False, &#x27;test&#x27;: None, &#x27;folder&#x27;: &#x27;C:\\\\Users\\\\Hadar\\\\PycharmProjects\\\\web2py&#x27;, &#x27;config&#x27;: &#x27;&#x27;, &#x27;minthreads&#x27;: None, &#x27;shell&#x27;: None, &#x27;run&#x27;: &#x27;&#x27;, &#x27;log_filename&#x27;: &#x27;httpserver.log&#x27;, &#x27;profiler_dir&#x27;: None, &#x27;args&#x27;: [], &#x27;socket_timeout&#x27;: 5, &#x27;ssl_ca_certificate&#x27;: None, &#x27;scheduler&#x27;: None, &#x27;interfaces&#x27;: None, &#x27;ssl_private_key&#x27;: &#x27;&#x27;, &#x27;gae&#x27;: None, &#x27;password&#x27;: &#x27;******&#x27;, &#x27;request_queue_size&#x27;: 5, &#x27;ssl_certificate&#x27;: &#x27;&#x27;, &#x27;cronjob&#x27;: False, &#x27;numthreads&#x27;: None, &#x27;quiet&#x27;: False, &#x27;import_models&#x27;: False, &#x27;timeout&#x27;: 10, &#x27;plain&#x27;: False, &#x27;nobanner&#x27;: False}&gt;</div></td></tr><tr><td style="font-weight:bold;vertical-align:top;">content_length</td><td style="vertical-align:top;">:</td><td><div>86</div></td></tr><tr><td style="font-weight:bold;vertical-align:top;">content_type</td><td style="vertical-align:top;">:</td><td><div>application/x-www-form-urlencoded</div></td></tr><tr><td style="font-weight:bold;vertical-align:top;">db_sessions</td><td style="vertical-align:top;">:</td><td><div>set([])</div></td></tr><tr><td style="font-weight:bold;vertical-align:top;">debugging</td><td style="vertical-align:top;">:</td><td><div>True</div></td></tr><tr><td style="font-weight:bold;vertical-align:top;">gluon_parent</td><td style="vertical-align:top;">:</td><td><div>C:\\Users\\Hadar\\PycharmProjects\\web2py</div></td></tr><tr><td style="font-weight:bold;vertical-align:top;">http_accept</td><td style="vertical-align:top;">:</td><td><div>text/html,application/xhtml+xml,application/xml;q=0.9,image/webp,image/apng,*/*;q=0.8,application/signed-exchange;v=b3</div></td></tr><tr><td style="font-weight:bold;vertical-align:top;">http_accept_encoding</td><td style="vertical-align:top;">:</td><td><div>gzip, deflate, br</div></td></tr><tr><td style="font-weight:bold;vertical-align:top;">http_accept_language</td><td style="vertical-align:top;">:</td><td><div>en-US,en;q=0.9,he;q=0.8</div></td></tr><tr><td style="font-weight:bold;vertical-align:top;">http_cache_control</td><td style="vertical-align:top;">:</td><td><div>max-age=0</div></td></tr><tr><td style="font-weight:bold;vertical-align:top;">http_connection</td><td style="vertical-align:top;">:</td><td><div>keep-alive</div></td></tr><tr><td style="font-weight:bold;vertical-align:top;">http_content_length</td><td style="vertical-align:top;">:</td><td><div>86</div></td></tr><tr><td style="font-weight:bold;vertical-align:top;">http_content_type</td><td style="vertical-align:top;">:</td><td><div>application/x-www-form-urlencoded</div></td></tr><tr><td style="font-weight:bold;vertical-align:top;">http_cookie</td><td style="vertical-align:top;">:</td><td><div>session_id_admin=127.0.0.1-ad842396-2eb3-4405-80e3-671a3964b448; session_id_shots_manager=127.0.0.1-cd39e37d-890a-457e-a7da-335d1c2423ba; session_id_welcome=127.0.0.1-924b7aa2-32b9-4a1d-a0dd-6fe94fafa9ff</div></td></tr><tr><td style="font-weight:bold;vertical-align:top;">http_host</td><td style="vertical-align:top;">:</td><td><div>127.0.0.1:8000</div></td></tr><tr><td style="font-weight:bold;vertical-align:top;">http_origin</td><td style="vertical-align:top;">:</td><td><div>http://127.0.0.1:8000</div></td></tr><tr><td style="font-weight:bold;vertical-align:top;">http_referer</td><td style="vertical-align:top;">:</td><td><div>http://127.0.0.1:8000/Shots_Manager/shots/status</div></td></tr><tr><td style="font-weight:bold;vertical-align:top;">http_sec_fetch_mode</td><td style="vertical-align:top;">:</td><td><div>navigate</div></td></tr><tr><td style="font-weight:bold;vertical-align:top;">http_sec_fetch_site</td><td style="vertical-align:top;">:</td><td><div>same-origin</div></td></tr><tr><td style="font-weight:bold;vertical-align:top;">http_sec_fetch_user</td><td style="vertical-align:top;">:</td><td><div>?1</div></td></tr><tr><td style="font-weight:bold;vertical-align:top;">http_upgrade_insecure_requests</td><td style="vertical-align:top;">:</td><td><div>1</div></td></tr><tr><td style="font-weight:bold;vertical-align:top;">http_user_agent</td><td style="vertical-align:top;">:</td><td><div>Mozilla/5.0 (Windows NT 10.0; Win64; x64) AppleWebKit/537.36 (KHTML, like Gecko) Chrome/76.0.3809.100 Safari/537.36</div></td></tr><tr><td style="font-weight:bold;vertical-align:top;">is_jython</td><td style="vertical-align:top;">:</td><td><div>False</div></td></tr><tr><td style="font-weight:bold;vertical-align:top;">is_py2</td><td style="vertical-align:top;">:</td><td><div>True</div></td></tr><tr><td style="font-weight:bold;vertical-align:top;">is_pypy</td><td style="vertical-align:top;">:</td><td><div>False</div></td></tr><tr><td style="font-weight:bold;vertical-align:top;">is_source</td><td style="vertical-align:top;">:</td><td><div>False</div></td></tr><tr><td style="font-weight:bold;vertical-align:top;">local_hosts</td><td style="vertical-align:top;">:</td><td><div><table><tr><td><div>::ffff:127.0.0.1</div></td></tr><tr><td><div>::1</div></td></tr><tr><td><div>192.168.1.144</div></td></tr><tr><td><div>DESKTOP-3MK97MI.home</div></td></tr><tr><td><div>DESKTOP-3MK97MI</div></td></tr><tr><td><div>127.0.0.1</div></td></tr><tr><td><div>fe80::61b2:1e20:ff84:401b%4</div></td></tr></table></div></td></tr><tr><td style="font-weight:bold;vertical-align:top;">path_info</td><td style="vertical-align:top;">:</td><td><div>/Shots_Manager/shots/status</div></td></tr><tr><td style="font-weight:bold;vertical-align:top;">query_string</td><td style="vertical-align:top;">:</td><td><div></div></td></tr><tr><td style="font-weight:bold;vertical-align:top;">remote_addr</td><td style="vertical-align:top;">:</td><td><div>127.0.0.1</div></td></tr><tr><td style="font-weight:bold;vertical-align:top;">remote_port</td><td style="vertical-align:top;">:</td><td><div>50034</div></td></tr><tr><td style="font-weight:bold;vertical-align:top;">request_method</td><td style="vertical-align:top;">:</td><td><div>POST</div></td></tr><tr><td style="font-weight:bold;vertical-align:top;">request_uri</td><td style="vertical-align:top;">:</td><td><div>/Shots_Manager/shots/status</div></td></tr><tr><td style="font-weight:bold;vertical-align:top;">script_name</td><td style="vertical-align:top;">:</td><td><div></div></td></tr><tr><td style="font-weight:bold;vertical-align:top;">server_name</td><td style="vertical-align:top;">:</td><td><div>DESKTOP-3MK97MI</div></td></tr><tr><td style="font-weight:bold;vertical-align:top;">server_port</td><td style="vertical-align:top;">:</td><td><div>8000</div></td></tr><tr><td style="font-weight:bold;vertical-align:top;">server_protocol</td><td style="vertical-align:top;">:</td><td><div>HTTP/1.1</div></td></tr><tr><td style="font-weight:bold;vertical-align:top;">server_software</td><td style="vertical-align:top;">:</td><td><div>Rocket 1.2.6</div></td></tr><tr><td style="font-weight:bold;vertical-align:top;">web2py_path</td><td style="vertical-align:top;">:</td><td><div>C:\\Users\\Hadar\\PycharmProjects\\web2py</div></td></tr><tr><td style="font-weight:bold;vertical-align:top;">web2py_version</td><td style="vertical-align:top;">:</td><td><div>2.18.5-stable+timestamp.2019.04.08.04.22.03</div></td></tr><tr><td style="font-weight:bold;vertical-align:top;">wsgi.errors</td><td style="vertical-align:top;">:</td><td><div>&lt;open file &#x27;&lt;stderr&gt;&#x27;, mode &#x27;w&#x27; at 0x0210D0D0&gt;</div></td></tr><tr><td style="font-weight:bold;vertical-align:top;">wsgi.file_wrapper</td><td style="vertical-align:top;">:</td><td><div>&lt;class wsgiref.util.FileWrapper at 0x02F629D0&gt;</div></td></tr><tr><td style="font-weight:bold;vertical-align:top;">wsgi.input</td><td style="vertical-align:top;">:</td><td><div>&lt;socket._fileobject object at 0x047503F0&gt;</div></td></tr><tr><td style="font-weight:bold;vertical-align:top;">wsgi.multiprocess</td><td style="vertical-align:top;">:</td><td><div>False</div></td></tr><tr><td style="font-weight:bold;vertical-align:top;">wsgi.multithread</td><td style="vertical-align:top;">:</td><td><div>True</div></td></tr><tr><td style="font-weight:bold;vertical-align:top;">wsgi.run_once</td><td style="vertical-align:top;">:</td><td><div>False</div></td></tr><tr><td style="font-weight:bold;vertical-align:top;">wsgi.url_scheme</td><td style="vertical-align:top;">:</td><td><div>http</div></td></tr><tr><td style="font-weight:bold;vertical-align:top;">wsgi.version</td><td style="vertical-align:top;">:</td><td><div><table><tr><td><div>1</div></td></tr><tr><td><div>0</div></td></tr></table></div></td></tr><tr><td style="font-weight:bold;vertical-align:top;">wsgi_errors</td><td style="vertical-align:top;">:</td><td><div>&lt;open file &#x27;&lt;stderr&gt;&#x27;, mode &#x27;w&#x27; at 0x0210D0D0&gt;</div></td></tr><tr><td style="font-weight:bold;vertical-align:top;">wsgi_file_wrapper</td><td style="vertical-align:top;">:</td><td><div>&lt;class wsgiref.util.FileWrapper at 0x02F629D0&gt;</div></td></tr><tr><td style="font-weight:bold;vertical-align:top;">wsgi_input</td><td style="vertical-align:top;">:</td><td><div>&lt;socket._fileobject object at 0x047503F0&gt;</div></td></tr><tr><td style="font-weight:bold;vertical-align:top;">wsgi_multiprocess</td><td style="vertical-align:top;">:</td><td><div>False</div></td></tr><tr><td style="font-weight:bold;vertical-align:top;">wsgi_multithread</td><td style="vertical-align:top;">:</td><td><div>True</div></td></tr><tr><td style="font-weight:bold;vertical-align:top;">wsgi_run_once</td><td style="vertical-align:top;">:</td><td><div>False</div></td></tr><tr><td style="font-weight:bold;vertical-align:top;">wsgi_url_scheme</td><td style="vertical-align:top;">:</td><td><div>http</div></td></tr><tr><td style="font-weight:bold;vertical-align:top;">wsgi_version</td><td style="vertical-align:top;">:</td><td><div><table><tr><td><div>1</div></td></tr><tr><td><div>0</div></td></tr></table></div></td></tr></table></div></td></tr><tr><td style="font-weight:bold;vertical-align:top;">extension</td><td style="vertical-align:top;">:</td><td><div>html</div></td></tr><tr><td style="font-weight:bold;vertical-align:top;">folder</td><td style="vertical-align:top;">:</td><td><div>C:\\Users\\Hadar\\PycharmProjects\\web2py\\applications\\Shots_Manager</div></td></tr><tr><td style="font-weight:bold;vertical-align:top;">function</td><td style="vertical-align:top;">:</td><td><div>status</div></td></tr><tr><td style="font-weight:bold;vertical-align:top;">global_settings</td><td style="vertical-align:top;">:</td><td><div><table><tr><td style="font-weight:bold;vertical-align:top;">app_folders</td><td style="vertical-align:top;">:</td><td><div>set([&#x27;C:\\\\Users\\\\Hadar\\\\PycharmProjects\\\\web2py\\\\applications\\\\Shots_Manager&#x27;, &#x27;C:\\\\Users\\\\Hadar\\\\PycharmProjects\\\\web2py\\\\applications\\\\admin&#x27;, &#x27;C:\\\\Users\\\\Hadar\\\\PycharmProjects\\\\web2py\\\\applications\\\\welcome&#x27;])</div></td></tr><tr><td style="font-weight:bold;vertical-align:top;">applications_parent</td><td style="vertical-align:top;">:</td><td><div>C:\\Users\\Hadar\\PycharmProjects\\web2py</div></td></tr><tr><td style="font-weight:bold;vertical-align:top;">cmd_args</td><td style="vertical-align:top;">:</td><td><div><table></table></div></td></tr><tr><td style="font-weight:bold;vertical-align:top;">cmd_options</td><td style="vertical-align:top;">:</td><td><div>&lt;Values at 0x3239508: {&#x27;verbose&#x27;: False, &#x27;ip&#x27;: &#x27;127.0.0.1&#x27;, &#x27;debuglevel&#x27;: 30, &#x27;with_scheduler&#x27;: False, &#x27;shutdown_timeout&#x27;: 5, &#x27;taskbar&#x27;: False, &#x27;with_coverage&#x27;: False, &#x27;pid_filename&#x27;: &#x27;httpserver.pid&#x27;, &#x27;maxthreads&#x27;: None, &#x27;softcron&#x27;: False, &#x27;server_name&#x27;: &#x27;DESKTOP-3MK97MI&#x27;, &#x27;bpython&#x27;: False, &#x27;nogui&#x27;: False, &#x27;port&#x27;: 8000, &#x27;print_errors&#x27;: False, &#x27;extcron&#x27;: False, &#x27;runcron&#x27;: False, &#x27;run_system_tests&#x27;: False, &#x27;test&#x27;: None, &#x27;folder&#x27;: &#x27;C:\\\\Users\\\\Hadar\\\\PycharmProjects\\\\web2py&#x27;, &#x27;config&#x27;: &#x27;&#x27;, &#x27;minthreads&#x27;: None, &#x27;shell&#x27;: None, &#x27;run&#x27;: &#x27;&#x27;, &#x27;log_filename&#x27;: &#x27;httpserver.log&#x27;, &#x27;profiler_dir&#x27;: None, &#x27;args&#x27;: [], &#x27;socket_timeout&#x27;: 5, &#x27;ssl_ca_certificate&#x27;: None, &#x27;scheduler&#x27;: None, &#x27;interfaces&#x27;: None, &#x27;ssl_private_key&#x27;: &#x27;&#x27;, &#x27;gae&#x27;: None, &#x27;password&#x27;: &#x27;******&#x27;, &#x27;request_queue_size&#x27;: 5, &#x27;ssl_certificate&#x27;: &#x27;&#x27;, &#x27;cronjob&#x27;: False, &#x27;numthreads&#x27;: None, &#x27;quiet&#x27;: False, &#x27;import_models&#x27;: False, &#x27;timeout&#x27;: 10, &#x27;plain&#x27;: False, &#x27;nobanner&#x27;: False}&gt;</div></td></tr><tr><td style="font-weight:bold;vertical-align:top;">db_sessions</td><td style="vertical-align:top;">:</td><td><div>set([])</div></td></tr><tr><td style="font-weight:bold;vertical-align:top;">debugging</td><td style="vertical-align:top;">:</td><td><div>True</div></td></tr><tr><td style="font-weight:bold;vertical-align:top;">gluon_parent</td><td style="vertical-align:top;">:</td><td><div>C:\\Users\\Hadar\\PycharmProjects\\web2py</div></td></tr><tr><td style="font-weight:bold;vertical-align:top;">is_jython</td><td style="vertical-align:top;">:</td><td><div>False</div></td></tr><tr><td style="font-weight:bold;vertical-align:top;">is_py2</td><td style="vertical-align:top;">:</td><td><div>True</div></td></tr><tr><td style="font-weight:bold;vertical-align:top;">is_pypy</td><td style="vertical-align:top;">:</td><td><div>False</div></td></tr><tr><td style="font-weight:bold;vertical-align:top;">is_source</td><td style="vertical-align:top;">:</td><td><div>False</div></td></tr><tr><td style="font-weight:bold;vertical-align:top;">local_hosts</td><td style="vertical-align:top;">:</td><td><div><table><tr><td><div>::ffff:127.0.0.1</div></td></tr><tr><td><div>::1</div></td></tr><tr><td><div>192.168.1.144</div></td></tr><tr><td><div>DESKTOP-3MK97MI.home</div></td></tr><tr><td><div>DESKTOP-3MK97MI</div></td></tr><tr><td><div>127.0.0.1</div></td></tr><tr><td><div>fe80::61b2:1e20:ff84:401b%4</div></td></tr></table></div></td></tr><tr><td style="font-weight:bold;vertical-align:top;">web2py_version</td><td style="vertical-align:top;">:</td><td><div>2.18.5-stable+timestamp.2019.04.08.04.22.03</div></td></tr></table></div></td></tr><tr><td style="font-weight:bold;vertical-align:top;">is_https</td><td style="vertical-align:top;">:</td><td><div>False</div></td></tr><tr><td style="font-weight:bold;vertical-align:top;">is_local</td><td style="vertical-align:top;">:</td><td><div>True</div></td></tr><tr><td style="font-weight:bold;vertical-align:top;">is_restful</td><td style="vertical-align:top;">:</td><td><div>False</div></td></tr><tr><td style="font-weight:bold;vertical-align:top;">is_scheduler</td><td style="vertical-align:top;">:</td><td><div>False</div></td></tr><tr><td style="font-weight:bold;vertical-align:top;">is_shell</td><td style="vertical-align:top;">:</td><td><div>False</div></td></tr><tr><td style="font-weight:bold;vertical-align:top;">method</td><td style="vertical-align:top;">:</td><td><div>POST</div></td></tr><tr><td style="font-weight:bold;vertical-align:top;">now</td><td style="vertical-align:top;">:</td><td><div>datetime.datetime(2019, 8, 24, 10, 21, 35, 771000)</div></td></tr><tr><td style="font-weight:bold;vertical-align:top;">raw_args</td><td style="vertical-align:top;">:</td><td><div></div></td></tr><tr><td style="font-weight:bold;vertical-align:top;">raw_extension</td><td style="vertical-align:top;">:</td><td><div>None</div></td></tr><tr><td style="font-weight:bold;vertical-align:top;">url</td><td style="vertical-align:top;">:</td><td><div>/Shots_Manager/shots/status</div></td></tr><tr><td style="font-weight:bold;vertical-align:top;">utcnow</td><td style="vertical-align:top;">:</td><td><div>datetime.datetime(2019, 8, 24, 7, 21, 35, 771000)</div></td></tr><tr><td style="font-weight:bold;vertical-align:top;">wsgi</td><td style="vertical-align:top;">:</td><td><div>&lt;gluon.main.LazyWSGI object at 0x04728C90&gt;</div></td></tr></table></div>'
tRp60
sS'frames'
p61
(lp62
(dp63
S'file'
p64
S'C:\\Users\\Hadar\\PycharmProjects\\web2py\\gluon\\restricted.py'
p65
sS'dump'
p66
(dp67
S'environment'
p68
S"{'A': <class 'gluon.html.A'>, 'ANY_OF': <class 'pydal.validators.ANY_OF'>, 'ASSIGNJS': <function ASSIGNJS>, 'AppConfig': <function AppConfig>, 'Auth': <class 'gluon.tools.Auth'>, 'B': <class 'gluon.html.B'>, 'BEAUTIFY': <class 'gluon.html.BEAUTIFY'>, 'BODY': <class 'gluon.html.BODY'>, 'BR': <class 'gluon.html.BR'>, 'BUTTON': <class 'gluon.html.BUTTON'>, ...}"
p69
sS'ccode'
p70
S'<code object <module> at 046A9968, file "C:\\User...ions\\Shots_Manager\\controllers/shots.py", line 4>'
p71
ssS'lnum'
p72
I219
sS'lines'
p73
(dp74
I214
S'    if environment is None:'
p75
sI215
S'        environment = {}'
p76
sI216
S"    environment['__file__'] = layer"
p77
sI217
S"    environment['__name__'] = '__restricted__'"
p78
sI218
S'    try:'
p79
sI219
S'        exec(ccode, environment)'
p80
sI220
S'    except HTTP:'
p81
sI221
S'        raise'
p82
sI222
S'    except RestrictedError:'
p83
sI223
S'        # do not encapsulate (obfuscate) the original RestrictedError'
p84
ssS'call'
p85
S'(ccode=<code object <module> at 046A9968, file "C:\\User...ions\\Shots_Manager\\controllers/shots.py", line 4>, environment={\'A\': <class \'gluon.html.A\'>, \'ANY_OF\': <class \'pydal.validators.ANY_OF\'>, \'ASSIGNJS\': <function ASSIGNJS>, \'AppConfig\': <function AppConfig>, \'Auth\': <class \'gluon.tools.Auth\'>, \'B\': <class \'gluon.html.B\'>, \'BEAUTIFY\': <class \'gluon.html.BEAUTIFY\'>, \'BODY\': <class \'gluon.html.BODY\'>, \'BR\': <class \'gluon.html.BR\'>, \'BUTTON\': <class \'gluon.html.BUTTON\'>, ...}, layer=r\'C:\\Users\\Hadar\\PycharmProjects\\web2py\\applications\\Shots_Manager\\controllers/shots.py\', scode=<code object <module> at 046A9968, file "C:\\User...ions\\Shots_Manager\\controllers/shots.py", line 4>)'
p86
sS'func'
p87
S'restricted'
p88
sa(dp89
g64
S'C:\\Users\\Hadar\\PycharmProjects\\web2py\\applications\\Shots_Manager\\controllers\\shots.py'
p90
sg66
(dp91
sg72
I37
sg73
(dp92
I32
S''
sI33
S'def update_record(current_time):'
p93
sI34
S'    db(db.shots.Name == request.post_vars.Name).update(Number_of_Frames = request.post_vars.Number_of_Frames, Modified_Date = current_time, Modified_By = "Hadar", Status = request.post_vars.Status, Is_Active = request.post_vars.Is_Active, Description = request.post_vars.Description)'
p94
sI35
S"    response.flash = T('The record updated successfully')"
p95
sI26
S'    rows = db(db.shots).select(orderby=db.shots.Name)'
p96
sI27
S'    return locals()'
p97
sI28
S''
sI29
S'def add_record(current_time):'
p98
sI30
S'    db.shots.insert(Name = request.post_vars.Name, Number_of_Frames = request.post_vars.Number_of_Frames, Modified_Date = current_time, Modified_By = "Hadar", Status = request.post_vars.Status, Is_Active = request.post_vars.Is_Active, Description = request.post_vars.Description)'
p99
sI31
S"    response.flash = T('The record was added successfully')"
p100
ssg85
S'()'
p101
sg87
S'<module>'
p102
sa(dp103
g64
S'C:\\Users\\Hadar\\PycharmProjects\\web2py\\gluon\\globals.py'
p104
sg66
(dp105
S'self'
p106
S'undefined'
p107
sS'f'
S'<function status>'
p108
ssg72
I421
sg73
(dp109
I416
S"        self.flash = ''            # used by the default view layout"
p110
sI417
S'        self.meta = Storage()      # used by web2py_ajax.html'
p111
sI418
S'        self.menu = []             # used by the default view layout'
p112
sI419
S'        self.files = []            # used by web2py_ajax.html'
p113
sI420
S'        self._vars = None'
p114
sI421
S'        self._caller = lambda f: f()'
p115
sI422
S'        self._view_environment = None'
p116
sI423
S'        self._custom_commit = None'
p117
sI424
S'        self._custom_rollback = None'
p118
sI425
S"        self.generic_patterns = ['*']"
p119
ssg85
S'(f=<function status>)'
p120
sg87
S'<lambda>'
p121
sa(dp122
g64
S'C:\\Users\\Hadar\\PycharmProjects\\web2py\\applications\\Shots_Manager\\controllers\\shots.py'
p123
sg66
(dp124
S'now'
p125
S'datetime.datetime(2019, 8, 24, 10, 21, 35, 988000)'
p126
sS'global update_record'
p127
S'<function update_record>'
p128
ssg72
I20
sg73
(dp129
I15
S'        row_to_display = db.shots(db.shots.id == id)'
p130
sI16
S''
sI17
S'    if request.post_vars:'
p131
sI18
S'        now = datetime.datetime.now()'
p132
sI19
S'        if db(db.shots.Name == request.post_vars.Name).select().first():'
p133
sI20
S'            update_record(now)'
p134
sI21
S'        else:'
p135
sI22
S"            response.flash = T('add new')"
p136
sI23
S'            add_record(now)'
p137
sI24
S'        row_to_display = db.shots(db.shots.Name == request.post_vars.Name)'
p138
ssg85
S'()'
p139
sg87
S'status'
p140
sa(dp141
g64
S'C:\\Users\\Hadar\\PycharmProjects\\web2py\\applications\\Shots_Manager\\controllers\\shots.py'
p142
sg66
(dp143
S'request.post_vars.Number_of_Frames'
p144
S"'dsadsd'"
p145
sS'Modified_Date'
p146
g107
sS'Status'
p147
g107
sS'request.post_vars'
p148
S"<Storage {'Status': 'WIP', 'Number_of_Frames': '...ame': 'Shot 001', 'Description': 'Camera shake'}>"
p149
sS'Modified_By'
p150
g107
sS'request.post_vars.Is_Active'
p151
S"'on'"
p152
sS'request.post_vars.Status'
p153
S"'WIP'"
p154
sS'current_time'
p155
S'datetime.datetime(2019, 8, 24, 10, 21, 35, 988000)'
p156
sS'global request'
p157
S"<Storage {'function': 'status', 'cookies': <Simp...False, 'is_https': False, 'client': '127.0.0.1'}>"
p158
sS'db.shots.Name'
p159
S'<pydal.objects.Field object>'
p160
sS'Is_Active'
p161
g107
sS'request.post_vars.Name'
p162
S"'Shot 001'"
p163
sS').update'
p164
g107
sS'db.shots'
p165
S'<Table shots (id, Name, Number_of_Frames, Status...ified_Date, Modified_By, Is_Active, Description)>'
p166
sS'global db'
p167
S'<DAL uri="sqlite://storage.sqlite">'
p168
sS'Number_of_Frames'
p169
g107
sS'request.post_vars.Description'
p170
S"'Camera shake'"
p171
sS'Description'
p172
g107
ssg72
I34
sg73
(dp173
I32
S''
sI33
S'def update_record(current_time):'
p174
sI34
S'    db(db.shots.Name == request.post_vars.Name).update(Number_of_Frames = request.post_vars.Number_of_Frames, Modified_Date = current_time, Modified_By = "Hadar", Status = request.post_vars.Status, Is_Active = request.post_vars.Is_Active, Description = request.post_vars.Description)'
p175
sI35
S"    response.flash = T('The record updated successfully')"
p176
sI26
S'    rows = db(db.shots).select(orderby=db.shots.Name)'
p177
sI27
S'    return locals()'
p178
sI28
S''
sI29
S'def add_record(current_time):'
p179
sI30
S'    db.shots.insert(Name = request.post_vars.Name, Number_of_Frames = request.post_vars.Number_of_Frames, Modified_Date = current_time, Modified_By = "Hadar", Status = request.post_vars.Status, Is_Active = request.post_vars.Is_Active, Description = request.post_vars.Description)'
p180
sI31
S"    response.flash = T('The record was added successfully')"
p181
ssg85
S'(current_time=datetime.datetime(2019, 8, 24, 10, 21, 35, 988000))'
p182
sg87
S'update_record'
p183
sa(dp184
g64
S'C:\\Users\\Hadar\\PycharmProjects\\web2py\\gluon\\packages\\dal\\pydal\\objects.py'
p185
sg66
(dp186
S'self.query'
p187
S'<Query ("shots"."Name" = \'Shot 001\')>'
p188
sS'db._adapter'
p189
S'<pydal.adapters.sqlite.SQLite object>'
p190
sS'self'
p191
S'<Set ("shots"."Name" = \'Shot 001\')>'
p192
sS'db'
p193
S'<DAL uri="sqlite://storage.sqlite">'
p194
sS'ret'
p195
g107
sS'row.op_values'
p196
S"<bound method OpRow.op_values of <OpRow {'Status...Is_Active': 'on', 'Number_of_Frames': 'dsadsd'}>>"
p197
sS'table'
p198
S'<Table shots (id, Name, Number_of_Frames, Status...ified_Date, Modified_By, Is_Active, Description)>'
p199
sS'db._adapter.update'
p200
S'<bound method SQLite.update of <pydal.adapters.sqlite.SQLite object>>'
p201
sS'row'
p202
S"<OpRow {'Status': 'WIP', 'Modified_Date': dateti...'Is_Active': 'on', 'Number_of_Frames': 'dsadsd'}>"
p203
ssg72
I2434
sg73
(dp204
I2432
S'        if any(f(self, row) for f in table._before_update):'
p205
sI2433
S'            return 0'
p206
sI2434
S'        ret = db._adapter.update(table, self.query, row.op_values())'
p207
sI2435
S'        ret and [f(self, row) for f in table._after_update]'
p208
sI2436
S'        return ret'
p209
sI2437
S''
sI2438
S'    def update_naive(self, **update_fields):'
p210
sI2429
S'        row = table._fields_and_values_for_update(update_fields)'
p211
sI2430
S'        if not row._values:'
p212
sI2431
S'            raise ValueError("No fields to update")'
p213
ssg85
S'(self=<Set ("shots"."Name" = \'Shot 001\')>, **update_fields={\'Description\': \'Camera shake\', \'Is_Active\': \'on\', \'Modified_By\': \'Hadar\', \'Modified_Date\': datetime.datetime(2019, 8, 24, 10, 21, 35, 988000), \'Number_of_Frames\': \'dsadsd\', \'Status\': \'WIP\'})'
p214
sg87
S'update'
p215
sa(dp216
g64
S'C:\\Users\\Hadar\\PycharmProjects\\web2py\\gluon\\packages\\dal\\pydal\\adapters\\base.py'
p217
sg66
(dp218
S'self._update'
p219
S'<bound method SQLite._update of <pydal.adapters.sqlite.SQLite object>>'
p220
sS'fields'
p221
S"[(<pydal.objects.Field object>, 'WIP'), (<pydal.objects.Field object>, datetime.datetime(2019, 8, 24, 10, 21, 35, 988000)), (<pydal.objects.Field object>, 'Hadar'), (<pydal.objects.Field object>, 'Camera shake'), (<pydal.objects.Field object>, 'on'), (<pydal.objects.Field object>, 'dsadsd')]"
p222
sS'self'
p223
S'<pydal.adapters.sqlite.SQLite object>'
p224
sS'sql'
p225
g107
sS'query'
p226
S'<Query ("shots"."Name" = \'Shot 001\')>'
p227
sS'table'
p228
S'<Table shots (id, Name, Number_of_Frames, Status...ified_Date, Modified_By, Is_Active, Description)>'
p229
ssg72
I517
sg73
(dp230
I512
S'                self.expand(value, field.type, query_env=query_env))'
p231
sI513
S'            for (field, value) in fields])'
p232
sI514
S'        return self.dialect.update(table, sql_v, sql_q)'
p233
sI515
S''
sI516
S'    def update(self, table, query, fields):'
p234
sI517
S'        sql = self._update(table, query, fields)'
p235
sI518
S'        try:'
p236
sI519
S'            self.execute(sql)'
p237
sI520
S'        except:'
p238
sI521
S'            e = sys.exc_info()[1]'
p239
ssg85
S'(self=<pydal.adapters.sqlite.SQLite object>, table=<Table shots (id, Name, Number_of_Frames, Status...ified_Date, Modified_By, Is_Active, Description)>, query=<Query ("shots"."Name" = \'Shot 001\')>, fields=[(<pydal.objects.Field object>, \'WIP\'), (<pydal.objects.Field object>, datetime.datetime(2019, 8, 24, 10, 21, 35, 988000)), (<pydal.objects.Field object>, \'Hadar\'), (<pydal.objects.Field object>, \'Camera shake\'), (<pydal.objects.Field object>, \'on\'), (<pydal.objects.Field object>, \'dsadsd\')])'
p240
sg87
g215
sa(dp241
g64
S'C:\\Users\\Hadar\\PycharmProjects\\web2py\\gluon\\packages\\dal\\pydal\\adapters\\base.py'
p242
sg66
(dp243
S'field'
p244
S'<pydal.objects.Field object>'
p245
sS'value'
p246
S"'dsadsd'"
p247
sS'fields'
p248
S"[(<pydal.objects.Field object>, 'WIP'), (<pydal.objects.Field object>, datetime.datetime(2019, 8, 24, 10, 21, 35, 988000)), (<pydal.objects.Field object>, 'Hadar'), (<pydal.objects.Field object>, 'Camera shake'), (<pydal.objects.Field object>, 'on'), (<pydal.objects.Field object>, 'dsadsd')]"
p249
ssg72
I513
sg73
(dp250
I512
S'                self.expand(value, field.type, query_env=query_env))'
p251
sI513
S'            for (field, value) in fields])'
p252
sI514
S'        return self.dialect.update(table, sql_v, sql_q)'
p253
sI515
S''
sI516
S'    def update(self, table, query, fields):'
p254
sI517
S'        sql = self._update(table, query, fields)'
p255
sI508
S'                query = self.common_filter(query, [table])'
p256
sI509
S'            sql_q = self.expand(query, query_env=query_env)'
p257
sI510
S"        sql_v = ','.join(["
p258
sI511
S"            '%s=%s' % (field._rname,"
p259
ssg85
S'(self=<pydal.adapters.sqlite.SQLite object>, table=<Table shots (id, Name, Number_of_Frames, Status...ified_Date, Modified_By, Is_Active, Description)>, query=<Query ("shots"."Name" = \'Shot 001\')>, fields=[(<pydal.objects.Field object>, \'WIP\'), (<pydal.objects.Field object>, datetime.datetime(2019, 8, 24, 10, 21, 35, 988000)), (<pydal.objects.Field object>, \'Hadar\'), (<pydal.objects.Field object>, \'Camera shake\'), (<pydal.objects.Field object>, \'on\'), (<pydal.objects.Field object>, \'dsadsd\')])'
p260
sg87
S'_update'
p261
sa(dp262
g64
S'C:\\Users\\Hadar\\PycharmProjects\\web2py\\gluon\\packages\\dal\\pydal\\adapters\\base.py'
p263
sg66
(dp264
S'self.represent'
p265
S'<bound method SQLite.represent of <pydal.adapters.sqlite.SQLite object>>'
p266
sS'rv'
p267
g107
sS'expression'
p268
S"'dsadsd'"
p269
sS'self'
p270
S'<pydal.adapters.sqlite.SQLite object>'
p271
sS'field_type'
p272
S"'integer'"
p273
ssg72
I445
sg73
(dp274
I448
S'                          for item in expression)'
p275
sI449
S'        elif isinstance(expression, bool):'
p276
sI440
S'                    op = op[:-1]'
p277
sI441
S"                rv = '(%s)' % op"
p278
sI442
S'            else:'
p279
sI443
S'                rv = op()'
p280
sI444
S'        elif field_type:'
p281
sI445
S'            rv = self.represent(expression, field_type)'
p282
sI446
S'        elif isinstance(expression, (list, tuple)):'
p283
sI447
S"            rv = ','.join(self.represent(item, field_type)"
p284
ssg85
S"(self=<pydal.adapters.sqlite.SQLite object>, expression='dsadsd', field_type='integer', colnames=False, query_env={'current_scope': ['shots']})"
p285
sg87
S'_expand'
p286
sa(dp287
g64
S'C:\\Users\\Hadar\\PycharmProjects\\web2py\\gluon\\packages\\dal\\pydal\\adapters\\base.py'
p288
sg66
(dp289
S'field_type'
p290
S"'integer'"
p291
sS'obj'
p292
S"'dsadsd'"
p293
sS'self'
p294
S'<pydal.adapters.sqlite.SQLite object>'
p295
sS'global SQLAdapter'
p296
S"<class 'pydal.adapters.base.SQLAdapter'>"
p297
sS').represent'
p298
S'<bound method SQLite.represent of <pydal.adapters.sqlite.SQLite object>>'
p299
sS'builtinsuper'
p300
S"<type 'super'>"
p301
ssg72
I382
sg73
(dp302
I384
S'    def adapt(self, obj):'
p303
sI385
S'        return "\'%s\'" % obj.replace("\'", "\'\'")'
p304
sI386
S''
sI377
S"        self.execute('SELECT 1;')"
p305
sI378
S''
sI379
S'    def represent(self, obj, field_type):'
p306
sI380
S'        if isinstance(obj, (Expression, Field)):'
p307
sI381
S'            return str(obj)'
p308
sI382
S'        return super(SQLAdapter, self).represent(obj, field_type)'
p309
sI383
S''
ssg85
S"(self=<pydal.adapters.sqlite.SQLite object>, obj='dsadsd', field_type='integer')"
p310
sg87
S'represent'
p311
sa(dp312
g64
S'C:\\Users\\Hadar\\PycharmProjects\\web2py\\gluon\\packages\\dal\\pydal\\adapters\\base.py'
p313
sg66
(dp314
S'self.representer'
p315
S'<pydal.representers.sqlite.SQLiteRepresenter object>'
p316
sS'self'
p317
S'<pydal.adapters.sqlite.SQLite object>'
p318
sS'field_type'
p319
S"'integer'"
p320
sS'obj'
p321
S"'dsadsd'"
p322
sS'self.representer.represent'
p323
S'<bound method SQLiteRepresenter.represent of <pydal.representers.sqlite.SQLiteRepresenter object>>'
p324
ssg72
I336
sg73
(dp325
I331
S'        return value'
p326
sI332
S''
sI333
S'    def represent(self, obj, field_type):'
p327
sI334
S'        if isinstance(obj, CALLABLETYPES):'
p328
sI335
S'            obj = obj()'
p329
sI336
S'        return self.representer.represent(obj, field_type)'
p330
sI337
S''
sI338
S'    def _drop_table_cleanup(self, table):'
p331
sI339
S'        del self.db[table._tablename]'
p332
sI340
S'        del self.db.tables[self.db.tables.index(table._tablename)]'
p333
ssg85
S"(self=<pydal.adapters.sqlite.SQLite object>, obj='dsadsd', field_type='integer')"
p334
sg87
g311
sa(dp335
g64
S'C:\\Users\\Hadar\\PycharmProjects\\web2py\\gluon\\packages\\dal\\pydal\\representers\\__init__.py'
p336
sg66
(dp337
S'field_type'
p338
S"'integer'"
p339
sS'rv'
p340
S"'dsadsd'"
p341
sS'self'
p342
S'<pydal.representers.sqlite.SQLiteRepresenter object>'
p343
sS'self.get_representer_for_type'
p344
S'<bound method SQLiteRepresenter.get_representer_...al.representers.sqlite.SQLiteRepresenter object>>'
p345
ssg72
I251
sg73
(dp346
I246
S'        if pre_end:'
p347
sI247
S'            return value'
p348
sI248
S'        repr_type, rv = self.get_representer_for_instance(value)('
p349
sI249
S'            value, field_type)'
p350
sI250
S'        if repr_type:'
p351
sI251
S'            rv = self.get_representer_for_type(field_type)(rv, field_type)'
p352
sI252
S'        return rv'
p353
sI253
S''
sI254
S''
sI255
S'from .base import BaseRepresenter, SQLRepresenter, NoSQLRepresenter'
p354
ssg85
S"(self=<pydal.representers.sqlite.SQLiteRepresenter object>, value='dsadsd', field_type='integer')"
p355
sg87
g311
sa(dp356
g64
S'C:\\Users\\Hadar\\PycharmProjects\\web2py\\gluon\\packages\\dal\\pydal\\representers\\__init__.py'
p357
sg66
(dp358
S'value'
p359
S"'dsadsd'"
p360
sS'self'
p361
S'<pydal.representers.TReprMethodWrapper object>'
p362
sS'self.call'
p363
S'<bound method TReprMethodWrapper._call of <pydal.representers.TReprMethodWrapper object>>'
p364
sS'self.adapt'
p365
S'<bound method TReprMethodWrapper._no_adapt of <pydal.representers.TReprMethodWrapper object>>'
p366
sS'field_type'
p367
S"'integer'"
p368
ssg72
I139
sg73
(dp369
I134
S''
sI135
S'    def _call(self, value, field_type):'
p370
sI136
S'        return self.inner_call(value)'
p371
sI137
S''
sI138
S'    def __call__(self, value, field_type):'
p372
sI139
S'        return self.adapt(self.call(value, field_type))'
p373
sI140
S''
sI141
S''
sI142
S'class IReprMethodWrapper(object):'
p374
sI143
S'    def __init__(self, representer, obj):'
p375
ssg85
S"(self=<pydal.representers.TReprMethodWrapper object>, value='dsadsd', field_type='integer')"
p376
sg87
S'__call__'
p377
sa(dp378
g64
S'C:\\Users\\Hadar\\PycharmProjects\\web2py\\gluon\\packages\\dal\\pydal\\representers\\__init__.py'
p379
sg66
(dp380
S'self.inner_call'
p381
S'<bound method TReprMethodWrapper._inner_call of <pydal.representers.TReprMethodWrapper object>>'
p382
sS'self'
p383
S'<pydal.representers.TReprMethodWrapper object>'
p384
sS'value'
p385
S"'dsadsd'"
p386
ssg72
I136
sg73
(dp387
I131
S'    def _call_with_extras(self, value, field_type):'
p388
sI132
S'        extras = self.extra(self.representer, field_type)'
p389
sI133
S'        return self.inner_call(value, **extras)'
p390
sI134
S''
sI135
S'    def _call(self, value, field_type):'
p391
sI136
S'        return self.inner_call(value)'
p392
sI137
S''
sI138
S'    def __call__(self, value, field_type):'
p393
sI139
S'        return self.adapt(self.call(value, field_type))'
p394
sI140
S''
ssg85
S"(self=<pydal.representers.TReprMethodWrapper object>, value='dsadsd', field_type='integer')"
p395
sg87
S'_call'
p396
sa(dp397
g64
S'C:\\Users\\Hadar\\PycharmProjects\\web2py\\gluon\\packages\\dal\\pydal\\representers\\__init__.py'
p398
sg66
(dp399
S'self.obj.f'
p400
S'<function _integer>'
p401
sS'self.obj'
p402
S'<pydal.representers.for_type object>'
p403
sS'self'
p404
S'<pydal.representers.TReprMethodWrapper object>'
p405
sS'value'
p406
S"'dsadsd'"
p407
sS'self.representer'
p408
S'<pydal.representers.sqlite.SQLiteRepresenter object>'
p409
sS'kwargs'
p410
g19
ssg72
I124
sg73
(dp411
I128
S'            value = value.encode(self.representer.adapter.db_codec)'
p412
sI119
S''
sI120
S'    def _no_adapt(self, value):'
p413
sI121
S'        return value'
p414
sI122
S''
sI123
S'    def _inner_call(self, value, **kwargs):'
p415
sI124
S'        return self.obj.f(self.representer, value, **kwargs)'
p416
sI125
S''
sI126
S'    def _inner_call_with_encode(self, value, **kwargs):'
p417
sI127
S'        if isinstance(value, unicode):'
p418
ssg85
S"(self=<pydal.representers.TReprMethodWrapper object>, value='dsadsd', **kwargs={})"
p419
sg87
S'_inner_call'
p420
sa(dp421
g64
S'C:\\Users\\Hadar\\PycharmProjects\\web2py\\gluon\\packages\\dal\\pydal\\representers\\base.py'
p422
sg66
(dp423
S'builtinstr'
p424
S"<type 'str'>"
p425
sS'global long'
p426
S"<type 'long'>"
p427
sS'value'
p428
S"'dsadsd'"
p429
ssg72
I30
sg73
(dp430
I32
S"    @for_type('decimal', adapt=False)"
p431
sI33
S'    def _decimal(self, value):'
p432
sI34
S'        return str(value)'
p433
sI25
S'    def _id(self, value):'
p434
sI26
S'        return str(long(value))'
p435
sI27
S''
sI28
S"    @for_type('integer', adapt=False)"
p436
sI29
S'    def _integer(self, value):'
p437
sI30
S'        return str(long(value))'
p438
sI31
S''
ssg85
S"(self=<pydal.representers.sqlite.SQLiteRepresenter object>, value='dsadsd')"
p439
sg87
S'_integer'
p440
sasS'pyver'
p441
S'Python 2.7.9: C:\\Users\\Hadar\\PycharmProjects\\web2py\\web2py.exe (prefix: )'
p442
sS'session'
p443
g59
(S's6\x01\x00\x00<div><table><tr><td style="font-weight:bold;vertical-align:top;">last_orderby</td><td style="vertical-align:top;">:</td><td><div>None</div></td></tr><tr><td style="font-weight:bold;vertical-align:top;">last_query</td><td style="vertical-align:top;">:</td><td><div>db.shots.id&gt;0</div></td></tr></table></div>'
tRp444
sS'etype'
p445
S"<type 'exceptions.ValueError'>"
p446
sS'date'
p447
S'Sat Aug 24 10:21:36 2019'
p448
sS'response'
p449
g59
(S's\x89>\x00\x00<div><table><tr><td style="font-weight:bold;vertical-align:top;">body</td><td style="vertical-align:top;">:</td><td><div>&lt;cStringIO.StringO object at 0x04728FA0&gt;</div></td></tr><tr><td style="font-weight:bold;vertical-align:top;">cookies</td><td style="vertical-align:top;">:</td><td><div><table><tr><td style="font-weight:bold;vertical-align:top;">session_id_shots_manager</td><td style="vertical-align:top;">:</td><td><div>127.0.0.1-cd39e37d-890a-457e-a7da-335d1c2423ba<table><tr><td style="font-weight:bold;vertical-align:top;">comment</td><td style="vertical-align:top;">:</td><td><div></div></td></tr><tr><td style="font-weight:bold;vertical-align:top;">domain</td><td style="vertical-align:top;">:</td><td><div></div></td></tr><tr><td style="font-weight:bold;vertical-align:top;">expires</td><td style="vertical-align:top;">:</td><td><div></div></td></tr><tr><td style="font-weight:bold;vertical-align:top;">httponly</td><td style="vertical-align:top;">:</td><td><div></div></td></tr><tr><td style="font-weight:bold;vertical-align:top;">max-age</td><td style="vertical-align:top;">:</td><td><div></div></td></tr><tr><td style="font-weight:bold;vertical-align:top;">path</td><td style="vertical-align:top;">:</td><td><div>/</div></td></tr><tr><td style="font-weight:bold;vertical-align:top;">samesite</td><td style="vertical-align:top;">:</td><td><div></div></td></tr><tr><td style="font-weight:bold;vertical-align:top;">secure</td><td style="vertical-align:top;">:</td><td><div></div></td></tr><tr><td style="font-weight:bold;vertical-align:top;">version</td><td style="vertical-align:top;">:</td><td><div></div></td></tr></table></div></td></tr></table></div></td></tr><tr><td style="font-weight:bold;vertical-align:top;">delimiters</td><td style="vertical-align:top;">:</td><td><div><table><tr><td><div>{{</div></td></tr><tr><td><div>}}</div></td></tr></table></div></td></tr><tr><td style="font-weight:bold;vertical-align:top;">files</td><td style="vertical-align:top;">:</td><td><div><table></table></div></td></tr><tr><td style="font-weight:bold;vertical-align:top;">flash</td><td style="vertical-align:top;">:</td><td><div></div></td></tr><tr><td style="font-weight:bold;vertical-align:top;">form_label_separator</td><td style="vertical-align:top;">:</td><td><div></div></td></tr><tr><td style="font-weight:bold;vertical-align:top;">formstyle</td><td style="vertical-align:top;">:</td><td><div>bootstrap4_inline</div></td></tr><tr><td style="font-weight:bold;vertical-align:top;">generic_patterns</td><td style="vertical-align:top;">:</td><td><div><table><tr><td><div>*</div></td></tr></table></div></td></tr><tr><td style="font-weight:bold;vertical-align:top;">google_analytics_id</td><td style="vertical-align:top;">:</td><td><div>None</div></td></tr><tr><td style="font-weight:bold;vertical-align:top;">headers</td><td style="vertical-align:top;">:</td><td><div><table><tr><td style="font-weight:bold;vertical-align:top;">X-Powered-By</td><td style="vertical-align:top;">:</td><td><div>web2py</div></td></tr></table></div></td></tr><tr><td style="font-weight:bold;vertical-align:top;">menu</td><td style="vertical-align:top;">:</td><td><div><table><tr><td><div><table><tr><td><div>Home</div></td></tr><tr><td><div>False</div></td></tr><tr><td><div>/Shots_Manager/default/index</div></td></tr><tr><td><div><table></table></div></td></tr></table></div></td></tr><tr><td><div><table><tr><td><div>My Sites</div></td></tr><tr><td><div>False</div></td></tr><tr><td><div>/admin/default/site</div></td></tr></table></div></td></tr><tr><td><div><table><tr><td><div>This App</div></td></tr><tr><td><div>False</div></td></tr><tr><td><div>#</div></td></tr><tr><td><div><table><tr><td><div><table><tr><td><div>Design</div></td></tr><tr><td><div>False</div></td></tr><tr><td><div>/admin/default/design/Shots_Manager</div></td></tr></table></div></td></tr><tr><td><div><table><tr><td><div>Controller</div></td></tr><tr><td><div>False</div></td></tr><tr><td><div>/admin/default/edit/Shots_Manager/controllers/shots.py</div></td></tr></table></div></td></tr><tr><td><div><table><tr><td><div>View</div></td></tr><tr><td><div>False</div></td></tr><tr><td><div>/admin/default/edit/Shots_Manager/views/shots/status.html</div></td></tr></table></div></td></tr><tr><td><div><table><tr><td><div>DB Model</div></td></tr><tr><td><div>False</div></td></tr><tr><td><div>/admin/default/edit/Shots_Manager/models/db.py</div></td></tr></table></div></td></tr><tr><td><div><table><tr><td><div>Menu Model</div></td></tr><tr><td><div>False</div></td></tr><tr><td><div>/admin/default/edit/Shots_Manager/models/menu.py</div></td></tr></table></div></td></tr><tr><td><div><table><tr><td><div>Config.ini</div></td></tr><tr><td><div>False</div></td></tr><tr><td><div>/admin/default/edit/Shots_Manager/private/appconfig.ini</div></td></tr></table></div></td></tr><tr><td><div><table><tr><td><div>Layout</div></td></tr><tr><td><div>False</div></td></tr><tr><td><div>/admin/default/edit/Shots_Manager/views/layout.html</div></td></tr></table></div></td></tr><tr><td><div><table><tr><td><div>Stylesheet</div></td></tr><tr><td><div>False</div></td></tr><tr><td><div>/admin/default/edit/Shots_Manager/static/css/web2py-bootstrap3.css</div></td></tr></table></div></td></tr><tr><td><div><table><tr><td><div>Database</div></td></tr><tr><td><div>False</div></td></tr><tr><td><div>/Shots_Manager/appadmin/index</div></td></tr></table></div></td></tr><tr><td><div><table><tr><td><div>Errors</div></td></tr><tr><td><div>False</div></td></tr><tr><td><div>/admin/default/errors/Shots_Manager</div></td></tr></table></div></td></tr><tr><td><div><table><tr><td><div>About</div></td></tr><tr><td><div>False</div></td></tr><tr><td><div>/admin/default/about/Shots_Manager</div></td></tr></table></div></td></tr></table></div></td></tr></table></div></td></tr><tr><td><div><table><tr><td><div>web2py.com</div></td></tr><tr><td><div>False</div></td></tr><tr><td><div>#</div></td></tr><tr><td><div><table><tr><td><div><table><tr><td><div>Download</div></td></tr><tr><td><div>False</div></td></tr><tr><td><div>http://www.web2py.com/examples/default/download</div></td></tr></table></div></td></tr><tr><td><div><table><tr><td><div>Support</div></td></tr><tr><td><div>False</div></td></tr><tr><td><div>http://www.web2py.com/examples/default/support</div></td></tr></table></div></td></tr><tr><td><div><table><tr><td><div>Demo</div></td></tr><tr><td><div>False</div></td></tr><tr><td><div>http://web2py.com/demo_admin</div></td></tr></table></div></td></tr><tr><td><div><table><tr><td><div>Quick Examples</div></td></tr><tr><td><div>False</div></td></tr><tr><td><div>http://web2py.com/examples/default/examples</div></td></tr></table></div></td></tr><tr><td><div><table><tr><td><div>FAQ</div></td></tr><tr><td><div>False</div></td></tr><tr><td><div>http://web2py.com/AlterEgo</div></td></tr></table></div></td></tr><tr><td><div><table><tr><td><div>Videos</div></td></tr><tr><td><div>False</div></td></tr><tr><td><div>http://www.web2py.com/examples/default/videos/</div></td></tr></table></div></td></tr><tr><td><div><table><tr><td><div>Free Applications</div></td></tr><tr><td><div>False</div></td></tr><tr><td><div>http://web2py.com/appliances</div></td></tr></table></div></td></tr><tr><td><div><table><tr><td><div>Plugins</div></td></tr><tr><td><div>False</div></td></tr><tr><td><div>http://web2py.com/plugins</div></td></tr></table></div></td></tr><tr><td><div><table><tr><td><div>Recipes</div></td></tr><tr><td><div>False</div></td></tr><tr><td><div>http://web2pyslices.com/</div></td></tr></table></div></td></tr></table></div></td></tr></table></div></td></tr><tr><td><div><table><tr><td><div>Documentation</div></td></tr><tr><td><div>False</div></td></tr><tr><td><div>#</div></td></tr><tr><td><div><table><tr><td><div><table><tr><td><div>Online book</div></td></tr><tr><td><div>False</div></td></tr><tr><td><div>http://www.web2py.com/book</div></td></tr></table></div></td></tr><tr><td><div><table><tr><td><div>Preface</div></td></tr><tr><td><div>False</div></td></tr><tr><td><div>http://www.web2py.com/book/default/chapter/00</div></td></tr></table></div></td></tr><tr><td><div><table><tr><td><div>Introduction</div></td></tr><tr><td><div>False</div></td></tr><tr><td><div>http://www.web2py.com/book/default/chapter/01</div></td></tr></table></div></td></tr><tr><td><div><table><tr><td><div>Python</div></td></tr><tr><td><div>False</div></td></tr><tr><td><div>http://www.web2py.com/book/default/chapter/02</div></td></tr></table></div></td></tr><tr><td><div><table><tr><td><div>Overview</div></td></tr><tr><td><div>False</div></td></tr><tr><td><div>http://www.web2py.com/book/default/chapter/03</div></td></tr></table></div></td></tr><tr><td><div><table><tr><td><div>The Core</div></td></tr><tr><td><div>False</div></td></tr><tr><td><div>http://www.web2py.com/book/default/chapter/04</div></td></tr></table></div></td></tr><tr><td><div><table><tr><td><div>The Views</div></td></tr><tr><td><div>False</div></td></tr><tr><td><div>http://www.web2py.com/book/default/chapter/05</div></td></tr></table></div></td></tr><tr><td><div><table><tr><td><div>Database</div></td></tr><tr><td><div>False</div></td></tr><tr><td><div>http://www.web2py.com/book/default/chapter/06</div></td></tr></table></div></td></tr><tr><td><div><table><tr><td><div>Forms and Validators</div></td></tr><tr><td><div>False</div></td></tr><tr><td><div>http://www.web2py.com/book/default/chapter/07</div></td></tr></table></div></td></tr><tr><td><div><table><tr><td><div>Email and SMS</div></td></tr><tr><td><div>False</div></td></tr><tr><td><div>http://www.web2py.com/book/default/chapter/08</div></td></tr></table></div></td></tr><tr><td><div><table><tr><td><div>Access Control</div></td></tr><tr><td><div>False</div></td></tr><tr><td><div>http://www.web2py.com/book/default/chapter/09</div></td></tr></table></div></td></tr><tr><td><div><table><tr><td><div>Services</div></td></tr><tr><td><div>False</div></td></tr><tr><td><div>http://www.web2py.com/book/default/chapter/10</div></td></tr></table></div></td></tr><tr><td><div><table><tr><td><div>Ajax Recipes</div></td></tr><tr><td><div>False</div></td></tr><tr><td><div>http://www.web2py.com/book/default/chapter/11</div></td></tr></table></div></td></tr><tr><td><div><table><tr><td><div>Components and Plugins</div></td></tr><tr><td><div>False</div></td></tr><tr><td><div>http://www.web2py.com/book/default/chapter/12</div></td></tr></table></div></td></tr><tr><td><div><table><tr><td><div>Deployment Recipes</div></td></tr><tr><td><div>False</div></td></tr><tr><td><div>http://www.web2py.com/book/default/chapter/13</div></td></tr></table></div></td></tr><tr><td><div><table><tr><td><div>Other Recipes</div></td></tr><tr><td><div>False</div></td></tr><tr><td><div>http://www.web2py.com/book/default/chapter/14</div></td></tr></table></div></td></tr><tr><td><div><table><tr><td><div>Helping web2py</div></td></tr><tr><td><div>False</div></td></tr><tr><td><div>http://www.web2py.com/book/default/chapter/15</div></td></tr></table></div></td></tr><tr><td><div><table><tr><td><div>Buy web2py\'s book</div></td></tr><tr><td><div>False</div></td></tr><tr><td><div>http://stores.lulu.com/web2py</div></td></tr></table></div></td></tr></table></div></td></tr></table></div></td></tr><tr><td><div><table><tr><td><div>Community</div></td></tr><tr><td><div>False</div></td></tr><tr><td><div>None</div></td></tr><tr><td><div><table><tr><td><div><table><tr><td><div>Groups</div></td></tr><tr><td><div>False</div></td></tr><tr><td><div>http://www.web2py.com/examples/default/usergroups</div></td></tr></table></div></td></tr><tr><td><div><table><tr><td><div>Twitter</div></td></tr><tr><td><div>False</div></td></tr><tr><td><div>http://twitter.com/web2py</div></td></tr></table></div></td></tr><tr><td><div><table><tr><td><div>Live Chat</div></td></tr><tr><td><div>False</div></td></tr><tr><td><div>http://webchat.freenode.net/?channels=web2py</div></td></tr></table></div></td></tr></table></div></td></tr></table></div></td></tr></table></div></td></tr><tr><td style="font-weight:bold;vertical-align:top;">meta</td><td style="vertical-align:top;">:</td><td><div><table><tr><td style="font-weight:bold;vertical-align:top;">author</td><td style="vertical-align:top;">:</td><td><div>Your Name &lt;you@example.com&gt;</div></td></tr><tr><td style="font-weight:bold;vertical-align:top;">description</td><td style="vertical-align:top;">:</td><td><div>a cool new app</div></td></tr><tr><td style="font-weight:bold;vertical-align:top;">generator</td><td style="vertical-align:top;">:</td><td><div>Web2py Web Framework</div></td></tr><tr><td style="font-weight:bold;vertical-align:top;">keywords</td><td style="vertical-align:top;">:</td><td><div><table><tr><td><div>web2py</div></td></tr><tr><td><div>python</div></td></tr><tr><td><div>framework</div></td></tr></table></div></td></tr></table></div></td></tr><tr><td style="font-weight:bold;vertical-align:top;">models_to_run</td><td style="vertical-align:top;">:</td><td><div><table><tr><td><div>^\\w+\\.py$</div></td></tr><tr><td><div>^shots/\\w+\\.py$</div></td></tr><tr><td><div>^shots/status/\\w+\\.py$</div></td></tr></table></div></td></tr><tr><td style="font-weight:bold;vertical-align:top;">postprocessing</td><td style="vertical-align:top;">:</td><td><div><table></table></div></td></tr><tr><td style="font-weight:bold;vertical-align:top;">session_client</td><td style="vertical-align:top;">:</td><td><div>127.0.0.1</div></td></tr><tr><td style="font-weight:bold;vertical-align:top;">session_cookie_compression_level</td><td style="vertical-align:top;">:</td><td><div>None</div></td></tr><tr><td style="font-weight:bold;vertical-align:top;">session_cookie_expires</td><td style="vertical-align:top;">:</td><td><div>None</div></td></tr><tr><td style="font-weight:bold;vertical-align:top;">session_data_name</td><td style="vertical-align:top;">:</td><td><div>session_data_shots_manager</div></td></tr><tr><td style="font-weight:bold;vertical-align:top;">session_file</td><td style="vertical-align:top;">:</td><td><div>&lt;open file &#x27;C:\\\\Users\\\\Hadar\\\\PycharmProjects\\\\web2py\\\\applications\\\\Shots_Manager\\\\sessions\\\\00c\\\\0c0\\\\127.0.0.1-cd39e37d-890a-457e-a7da-335d1c2423ba&#x27;, mode &#x27;rb+&#x27; at 0x04644808&gt;</div></td></tr><tr><td style="font-weight:bold;vertical-align:top;">session_filename</td><td style="vertical-align:top;">:</td><td><div>C:\\Users\\Hadar\\PycharmProjects\\web2py\\applications\\Shots_Manager\\sessions\\127.0.0.1-cd39e37d-890a-457e-a7da-335d1c2423ba</div></td></tr><tr><td style="font-weight:bold;vertical-align:top;">session_hash</td><td style="vertical-align:top;">:</td><td><div>da1a802634c6ba71687caafb2098dd95</div></td></tr><tr><td style="font-weight:bold;vertical-align:top;">session_id</td><td style="vertical-align:top;">:</td><td><div>127.0.0.1-cd39e37d-890a-457e-a7da-335d1c2423ba</div></td></tr><tr><td style="font-weight:bold;vertical-align:top;">session_id_name</td><td style="vertical-align:top;">:</td><td><div>session_id_shots_manager</div></td></tr><tr><td style="font-weight:bold;vertical-align:top;">session_locked</td><td style="vertical-align:top;">:</td><td><div>True</div></td></tr><tr><td style="font-weight:bold;vertical-align:top;">session_masterapp</td><td style="vertical-align:top;">:</td><td><div>Shots_Manager</div></td></tr><tr><td style="font-weight:bold;vertical-align:top;">session_new</td><td style="vertical-align:top;">:</td><td><div>False</div></td></tr><tr><td style="font-weight:bold;vertical-align:top;">session_storage_type</td><td style="vertical-align:top;">:</td><td><div>file</div></td></tr><tr><td style="font-weight:bold;vertical-align:top;">show_toolbar</td><td style="vertical-align:top;">:</td><td><div>False</div></td></tr><tr><td style="font-weight:bold;vertical-align:top;">status</td><td style="vertical-align:top;">:</td><td><div>200</div></td></tr><tr><td style="font-weight:bold;vertical-align:top;">view</td><td style="vertical-align:top;">:</td><td><div>shots/status.html</div></td></tr></table></div>'
tRp450
sS'locals'
p451
(dp452
S'self'
p453
S'<pydal.representers.sqlite.SQLiteRepresenter object>'
p454
sS'value'
p455
S"'dsadsd'"
p456
sssS'traceback'
p457
S'Traceback (most recent call last):\n  File "C:\\Users\\Hadar\\PycharmProjects\\web2py\\gluon\\restricted.py", line 219, in restricted\n    exec(ccode, environment)\n  File "C:\\Users\\Hadar\\PycharmProjects\\web2py\\applications\\Shots_Manager\\controllers/shots.py", line 37, in <module>\n  File "C:\\Users\\Hadar\\PycharmProjects\\web2py\\gluon\\globals.py", line 421, in <lambda>\n    self._caller = lambda f: f()\n  File "C:\\Users\\Hadar\\PycharmProjects\\web2py\\applications\\Shots_Manager\\controllers/shots.py", line 20, in status\n    update_record(now)\n  File "C:\\Users\\Hadar\\PycharmProjects\\web2py\\applications\\Shots_Manager\\controllers/shots.py", line 34, in update_record\n    db(db.shots.Name == request.post_vars.Name).update(Number_of_Frames = request.post_vars.Number_of_Frames, Modified_Date = current_time, Modified_By = "Hadar", Status = request.post_vars.Status, Is_Active = request.post_vars.Is_Active, Description = request.post_vars.Description)\n  File "C:\\Users\\Hadar\\PycharmProjects\\web2py\\gluon\\packages\\dal\\pydal\\objects.py", line 2434, in update\n    ret = db._adapter.update(table, self.query, row.op_values())\n  File "C:\\Users\\Hadar\\PycharmProjects\\web2py\\gluon\\packages\\dal\\pydal\\adapters\\base.py", line 517, in update\n    sql = self._update(table, query, fields)\n  File "C:\\Users\\Hadar\\PycharmProjects\\web2py\\gluon\\packages\\dal\\pydal\\adapters\\base.py", line 513, in _update\n    for (field, value) in fields])\n  File "C:\\Users\\Hadar\\PycharmProjects\\web2py\\gluon\\packages\\dal\\pydal\\adapters\\base.py", line 445, in _expand\n    rv = self.represent(expression, field_type)\n  File "C:\\Users\\Hadar\\PycharmProjects\\web2py\\gluon\\packages\\dal\\pydal\\adapters\\base.py", line 382, in represent\n    return super(SQLAdapter, self).represent(obj, field_type)\n  File "C:\\Users\\Hadar\\PycharmProjects\\web2py\\gluon\\packages\\dal\\pydal\\adapters\\base.py", line 336, in represent\n    return self.representer.represent(obj, field_type)\n  File "C:\\Users\\Hadar\\PycharmProjects\\web2py\\gluon\\packages\\dal\\pydal\\representers\\__init__.py", line 251, in represent\n    rv = self.get_representer_for_type(field_type)(rv, field_type)\n  File "C:\\Users\\Hadar\\PycharmProjects\\web2py\\gluon\\packages\\dal\\pydal\\representers\\__init__.py", line 139, in __call__\n    return self.adapt(self.call(value, field_type))\n  File "C:\\Users\\Hadar\\PycharmProjects\\web2py\\gluon\\packages\\dal\\pydal\\representers\\__init__.py", line 136, in _call\n    return self.inner_call(value)\n  File "C:\\Users\\Hadar\\PycharmProjects\\web2py\\gluon\\packages\\dal\\pydal\\representers\\__init__.py", line 124, in _inner_call\n    return self.obj.f(self.representer, value, **kwargs)\n  File "C:\\Users\\Hadar\\PycharmProjects\\web2py\\gluon\\packages\\dal\\pydal\\representers\\base.py", line 30, in _integer\n    return str(long(value))\nValueError: invalid literal for long() with base 10: \'dsadsd\'\n'
p458
s.